target datalayout = "e-m:e-p270:32:32-p271:32:32-p272:64:64-i64:64-i128:128-f80:128-n8:16:32:64-S128"
target triple = "x86_64-pc-linux-gnu"

%struct.itemstats_t = type { i64, i64, i64, i64, i64, i64, i64, i64, i64, i64, i64, i64, i64, i64, i64, i64, i64, i64, i64, i64, i32 }

@itemstats = internal global [256 x %struct.itemstats_t] zeroinitializer, align 16

; Function Attrs: nounwind uwtable
define dso_local void @do_item_stats_add_crawl(i32 noundef %0, i64 noundef %1, i64 noundef %2, i64 noundef %3) #0 {
  %5 = alloca i32, align 4
  %6 = alloca i64, align 8
  %7 = alloca i64, align 8
  %8 = alloca i64, align 8
  store i32 %0, ptr %5, align 4, !tbaa !4
  store i64 %1, ptr %6, align 8, !tbaa !10
  store i64 %2, ptr %7, align 8, !tbaa !10
  store i64 %3, ptr %8, align 8, !tbaa !10
  %9 = load i64, ptr %6, align 8, !tbaa !10
  %10 = load i32, ptr %5, align 4, !tbaa !4
  %11 = sext i32 %10 to i64
  %12 = getelementptr inbounds [256 x %struct.itemstats_t], ptr @itemstats, i64 0, i64 %11
  %13 = getelementptr inbounds nuw %struct.itemstats_t, ptr %12, i32 0, i32 8
  %14 = load i64, ptr %13, align 8, !tbaa !12
  %15 = add i64 %14, %9
  store i64 %15, ptr %13, align 8, !tbaa !12
  %16 = load i64, ptr %7, align 8, !tbaa !10
  %17 = load i32, ptr %5, align 4, !tbaa !4
  %18 = sext i32 %17 to i64
  %19 = getelementptr inbounds [256 x %struct.itemstats_t], ptr @itemstats, i64 0, i64 %18
  %20 = getelementptr inbounds nuw %struct.itemstats_t, ptr %19, i32 0, i32 5
  %21 = load i64, ptr %20, align 8, !tbaa !14
  %22 = add i64 %21, %16
  store i64 %22, ptr %20, align 8, !tbaa !14
  %23 = load i64, ptr %8, align 8, !tbaa !10
  %24 = load i32, ptr %5, align 4, !tbaa !4
  %25 = sext i32 %24 to i64
  %26 = getelementptr inbounds [256 x %struct.itemstats_t], ptr @itemstats, i64 0, i64 %25
  %27 = getelementptr inbounds nuw %struct.itemstats_t, ptr %26, i32 0, i32 9
  %28 = load i64, ptr %27, align 8, !tbaa !15
  %29 = add i64 %28, %23
  store i64 %29, ptr %27, align 8, !tbaa !15
  ret void
}