; Function Attrs: mustprogress nofree norecurse nosync nounwind willreturn memory(readwrite, argmem: none, inaccessiblemem: none) uwtable
define dso_local void @do_item_stats_add_crawl(i32 noundef %0, i64 noundef %1, i64 noundef %2, i64 noundef %3) local_unnamed_addr #4 {
  %5 = sext i32 %0 to i64
  %6 = getelementptr inbounds [256 x %struct.itemstats_t], ptr @itemstats, i64 0, i64 %5
  %7 = getelementptr inbounds nuw i8, ptr %6, i64 64
  %8 = load i64, ptr %7, align 8, !tbaa !6
  %9 = add i64 %8, %1
  store i64 %9, ptr %7, align 8, !tbaa !6
  %10 = getelementptr inbounds nuw i8, ptr %6, i64 40
  %11 = load i64, ptr %10, align 8, !tbaa !12
  %12 = add i64 %11, %2
  store i64 %12, ptr %10, align 8, !tbaa !12
  %13 = getelementptr inbounds nuw i8, ptr %6, i64 72
  %14 = load i64, ptr %13, align 8, !tbaa !13
  %15 = add i64 %14, %3
  store i64 %15, ptr %13, align 8, !tbaa !13
  ret void
}